; Function Attrs: mustprogress nounwind uwtable
define dso_local void @_ZN4llvm15SpecialCaseListD2Ev(ptr noundef nonnull align 8 dereferenceable(24) %0) unnamed_addr #0 align 2 {
  %2 = getelementptr inbounds nuw i8, ptr %0, i64 12
  %3 = load i32, ptr %2, align 4
  %4 = icmp eq i32 %3, 0
  br i1 %4, label %_ZN4llvm9StringMapINS_15SpecialCaseList7SectionENS_15MallocAllocatorEED2Ev.exit, label %5

5:                                                ; preds = %1
  %6 = getelementptr inbounds nuw i8, ptr %0, i64 8
  %7 = load i32, ptr %6, align 8
  %.not10.i = icmp eq i32 %7, 0
  br i1 %.not10.i, label %_ZN4llvm9StringMapINS_15SpecialCaseList7SectionENS_15MallocAllocatorEED2Ev.exit, label %.lr.ph.preheader.i

.lr.ph.preheader.i:                               ; preds = %5
  %8 = zext i32 %7 to i64
  br label %.lr.ph.i

.lr.ph.i:                                         ; preds = %13, %.lr.ph.preheader.i
  %indvars.iv.i = phi i64 [ 0, %.lr.ph.preheader.i ], [ %indvars.iv.next.i, %13 ]
  %9 = load ptr, ptr %0, align 8
  %10 = getelementptr inbounds ptr, ptr %9, i64 %indvars.iv.i
  %11 = load ptr, ptr %10, align 8
  %magicptr.i = ptrtoint ptr %11 to i64
  switch i64 %magicptr.i, label %12 [
    i64 0, label %13
    i64 -8, label %13
  ]

12:                                               ; preds = %.lr.ph.i
  tail call void @_ZN4llvm14StringMapEntryINS_15SpecialCaseList7SectionEE7DestroyINS_15MallocAllocatorEEEvRT_(ptr noundef nonnull align 8 dereferenceable(40) %11, ptr noundef nonnull align 1 dereferenceable(1) %0)
  br label %13

13:                                               ; preds = %12, %.lr.ph.i, %.lr.ph.i
  %indvars.iv.next.i = add nuw nsw i64 %indvars.iv.i, 1
  %.not.i = icmp eq i64 %indvars.iv.next.i, %8
  br i1 %.not.i, label %_ZN4llvm9StringMapINS_15SpecialCaseList7SectionENS_15MallocAllocatorEED2Ev.exit, label %.lr.ph.i, !llvm.loop !203

_ZN4llvm9StringMapINS_15SpecialCaseList7SectionENS_15MallocAllocatorEED2Ev.exit: ; preds = %13, %1, %5
  %14 = load ptr, ptr %0, align 8
  tail call void @free(ptr noundef %14) #15
  ret void
}